; Function Attrs: nounwind uwtable
define range(i32 0, 2) i32 @ossl_quic_channel_set_mutator(ptr noundef readonly captures(none) %0, ptr noundef %1, ptr noundef %2, ptr noundef %3) local_unnamed_addr #0 {
  %5 = getelementptr inbounds nuw i8, ptr %0, i64 1056
  %6 = load ptr, ptr %5, align 8, !tbaa !72
  %7 = icmp eq ptr %6, null
  br i1 %7, label %9, label %8

8:                                                ; preds = %4
  tail call void @ossl_qtx_set_mutator(ptr noundef nonnull %6, ptr noundef %1, ptr noundef %2, ptr noundef %3) #15
  br label %9

9:                                                ; preds = %4, %8
  %.0 = phi i32 [ 1, %8 ], [ 0, %4 ]
  ret i32 %.0
}